target datalayout = "e-m:e-p270:32:32-p271:32:32-p272:64:64-i64:64-i128:128-f80:128-n8:16:32:64-S128"
target triple = "x86_64-pc-linux-gnu"

%struct.H5D_farray_filt_elmt_t = type { i64, i32, i32 }
%struct.H5D_chk_idx_info_t = type { ptr, ptr, ptr, ptr }
%struct.H5O_storage_chunk_t = type { i32, i64, ptr, %union.anon.4 }
%union.anon.4 = type { %struct.H5O_storage_chunk_btree_t }
%struct.H5O_storage_chunk_btree_t = type { i64, ptr }
%struct.H5O_storage_chunk_farray_t = type { i64, ptr }
%struct.H5O_pline_t = type { %struct.H5O_shared_t, i32, i64, i64, ptr }
%struct.H5O_shared_t = type { i32, ptr, i32, %union.anon.5 }
%union.anon.5 = type { %struct.H5O_mesg_loc_t }
%struct.H5O_mesg_loc_t = type { i32, i64 }
%struct.H5O_storage_chunk_bt2_t = type { i64, ptr }
%struct.H5D_chunk_ud_t = type { %struct.H5D_chunk_common_ud_t, i32, %struct.H5F_block_t, i32, i8, i64 }
%struct.H5D_chunk_common_ud_t = type { ptr, ptr, ptr }
%struct.H5F_block_t = type { i64, i64 }

@.str.2 = private unnamed_addr constant [103 x i8] c"generated/home/dtcxzyw/WorkSpace/Projects/compilers/llvm-opt-benchmark/bench/hdf5/hdf5/src/H5Dfarray.c\00", align 1
@H5E_DATASET_g = external global i64, align 8
@H5E_CANTALLOC_g = external global i64, align 8
@H5E_CANTOPENOBJ_g = external global i64, align 8
@.str.20 = private unnamed_addr constant [23 x i8] c"can't open fixed array\00", align 1
@__func__.H5D__farray_idx_insert = private unnamed_addr constant [23 x i8] c"H5D__farray_idx_insert\00", align 1
@.str.22 = private unnamed_addr constant [40 x i8] c"The chunk should have allocated already\00", align 1
@H5E_ARGS_g = external global i64, align 8
@H5E_BADRANGE_g = external global i64, align 8
@.str.23 = private unnamed_addr constant [35 x i8] c"chunk index must be less than 2^32\00", align 1
@H5E_CANTSET_g = external global i64, align 8
@.str.24 = private unnamed_addr constant [21 x i8] c"can't set chunk info\00", align 1
@.str.25 = private unnamed_addr constant [24 x i8] c"can't set chunk address\00", align 1

; Function Attrs: nounwind uwtable
define internal i32 @H5D__farray_idx_insert(ptr noundef %0, ptr noundef %1, ptr noundef %2) #0 {
  %4 = alloca ptr, align 8
  %5 = alloca ptr, align 8
  %6 = alloca ptr, align 8
  %7 = alloca ptr, align 8
  %8 = alloca i32, align 4
  %9 = alloca i8, align 1
  %10 = alloca %struct.H5D_farray_filt_elmt_t, align 8
  store ptr %0, ptr %4, align 8
  store ptr %1, ptr %5, align 8
  store ptr %2, ptr %6, align 8
  store i32 0, ptr %8, align 4
  store i8 0, ptr %9, align 1
  %11 = load ptr, ptr %4, align 8
  %12 = getelementptr inbounds %struct.H5D_chk_idx_info_t, ptr %11, i32 0, i32 3
  %13 = load ptr, ptr %12, align 8
  %14 = getelementptr inbounds %struct.H5O_storage_chunk_t, ptr %13, i32 0, i32 3
  %15 = getelementptr inbounds %struct.H5O_storage_chunk_bt2_t, ptr %14, i32 0, i32 1
  %16 = load ptr, ptr %15, align 8
  %17 = icmp ne ptr null, %16
  br i1 %17, label %38, label %18

18:                                               ; preds = %3
  %19 = load ptr, ptr %4, align 8
  %20 = call i32 @H5D__farray_idx_open(ptr noundef %19)
  %21 = icmp slt i32 %20, 0
  br i1 %21, label %22, label %37

22:                                               ; preds = %18
  br label %23

23:                                               ; preds = %22
  br label %24

24:                                               ; preds = %23
  br label %25

25:                                               ; preds = %24
  %26 = load i64, ptr @H5E_DATASET_g, align 8
  %27 = load i64, ptr @H5E_CANTOPENOBJ_g, align 8
  %28 = call i32 (ptr, ptr, i32, i64, i64, ptr, ...) @H5E_printf_stack(ptr noundef @.str.2, ptr noundef @__func__.H5D__farray_idx_insert, i32 noundef 970, i64 noundef %26, i64 noundef %27, ptr noundef @.str.20)
  br label %29

29:                                               ; preds = %25
  store i8 1, ptr %9, align 1
  %30 = load i8, ptr %9, align 1
  %31 = trunc i8 %30 to i1
  %32 = zext i1 %31 to i8
  store i8 %32, ptr %9, align 1
  br label %33

33:                                               ; preds = %29
  br label %34

34:                                               ; preds = %33
  store i32 -1, ptr %8, align 4
  br label %174

35:                                               ; No predecessors!
  br label %36

36:                                               ; preds = %35
  br label %37

37:                                               ; preds = %36, %18
  br label %49

38:                                               ; preds = %3
  %39 = load ptr, ptr %4, align 8
  %40 = getelementptr inbounds %struct.H5D_chk_idx_info_t, ptr %39, i32 0, i32 3
  %41 = load ptr, ptr %40, align 8
  %42 = getelementptr inbounds %struct.H5O_storage_chunk_t, ptr %41, i32 0, i32 3
  %43 = getelementptr inbounds %struct.H5O_storage_chunk_farray_t, ptr %42, i32 0, i32 1
  %44 = load ptr, ptr %43, align 8
  %45 = load ptr, ptr %4, align 8
  %46 = getelementptr inbounds %struct.H5D_chk_idx_info_t, ptr %45, i32 0, i32 0
  %47 = load ptr, ptr %46, align 8
  %48 = call i32 @H5FA_patch_file(ptr noundef %44, ptr noundef %47)
  br label %49

49:                                               ; preds = %38, %37
  %50 = load ptr, ptr %4, align 8
  %51 = getelementptr inbounds %struct.H5D_chk_idx_info_t, ptr %50, i32 0, i32 3
  %52 = load ptr, ptr %51, align 8
  %53 = getelementptr inbounds %struct.H5O_storage_chunk_t, ptr %52, i32 0, i32 3
  %54 = getelementptr inbounds %struct.H5O_storage_chunk_farray_t, ptr %53, i32 0, i32 1
  %55 = load ptr, ptr %54, align 8
  store ptr %55, ptr %7, align 8
  %56 = load ptr, ptr %5, align 8
  %57 = getelementptr inbounds %struct.H5D_chunk_ud_t, ptr %56, i32 0, i32 2
  %58 = getelementptr inbounds %struct.H5F_block_t, ptr %57, i32 0, i32 0
  %59 = load i64, ptr %58, align 8
  %60 = icmp ne i64 %59, -1
  br i1 %60, label %76, label %61

61:                                               ; preds = %49
  br label %62

62:                                               ; preds = %61
  br label %63

63:                                               ; preds = %62
  br label %64

64:                                               ; preds = %63
  %65 = load i64, ptr @H5E_DATASET_g, align 8
  %66 = load i64, ptr @H5E_CANTALLOC_g, align 8
  %67 = call i32 (ptr, ptr, i32, i64, i64, ptr, ...) @H5E_printf_stack(ptr noundef @.str.2, ptr noundef @__func__.H5D__farray_idx_insert, i32 noundef 979, i64 noundef %65, i64 noundef %66, ptr noundef @.str.22)
  br label %68

68:                                               ; preds = %64
  store i8 1, ptr %9, align 1
  %69 = load i8, ptr %9, align 1
  %70 = trunc i8 %69 to i1
  %71 = zext i1 %70 to i8
  store i8 %71, ptr %9, align 1
  br label %72

72:                                               ; preds = %68
  br label %73

73:                                               ; preds = %72
  store i32 -1, ptr %8, align 4
  br label %174

74:                                               ; No predecessors!
  br label %75

75:                                               ; preds = %74
  br label %76

76:                                               ; preds = %75, %49
  %77 = load ptr, ptr %5, align 8
  %78 = getelementptr inbounds %struct.H5D_chunk_ud_t, ptr %77, i32 0, i32 5
  %79 = load i64, ptr %78, align 8
  %80 = load ptr, ptr %5, align 8
  %81 = getelementptr inbounds %struct.H5D_chunk_ud_t, ptr %80, i32 0, i32 5
  %82 = load i64, ptr %81, align 8
  %83 = and i64 %82, 4294967295
  %84 = icmp ne i64 %79, %83
  br i1 %84, label %85, label %100

85:                                               ; preds = %76
  br label %86

86:                                               ; preds = %85
  br label %87

87:                                               ; preds = %86
  br label %88

88:                                               ; preds = %87
  %89 = load i64, ptr @H5E_ARGS_g, align 8
  %90 = load i64, ptr @H5E_BADRANGE_g, align 8
  %91 = call i32 (ptr, ptr, i32, i64, i64, ptr, ...) @H5E_printf_stack(ptr noundef @.str.2, ptr noundef @__func__.H5D__farray_idx_insert, i32 noundef 981, i64 noundef %89, i64 noundef %90, ptr noundef @.str.23)
  br label %92

92:                                               ; preds = %88
  store i8 1, ptr %9, align 1
  %93 = load i8, ptr %9, align 1
  %94 = trunc i8 %93 to i1
  %95 = zext i1 %94 to i8
  store i8 %95, ptr %9, align 1
  br label %96

96:                                               ; preds = %92
  br label %97

97:                                               ; preds = %96
  store i32 -1, ptr %8, align 4
  br label %174

98:                                               ; No predecessors!
  br label %99

99:                                               ; preds = %98
  br label %100

100:                                              ; preds = %99, %76
  %101 = load ptr, ptr %4, align 8
  %102 = getelementptr inbounds %struct.H5D_chk_idx_info_t, ptr %101, i32 0, i32 1
  %103 = load ptr, ptr %102, align 8
  %104 = getelementptr inbounds %struct.H5O_pline_t, ptr %103, i32 0, i32 3
  %105 = load i64, ptr %104, align 8
  %106 = icmp ugt i64 %105, 0
  br i1 %106, label %107, label %147

107:                                              ; preds = %100
  %108 = load ptr, ptr %5, align 8
  %109 = getelementptr inbounds %struct.H5D_chunk_ud_t, ptr %108, i32 0, i32 2
  %110 = getelementptr inbounds %struct.H5F_block_t, ptr %109, i32 0, i32 0
  %111 = load i64, ptr %110, align 8
  %112 = getelementptr inbounds %struct.H5D_farray_filt_elmt_t, ptr %10, i32 0, i32 0
  store i64 %111, ptr %112, align 8
  br label %113

113:                                              ; preds = %107
  %114 = load ptr, ptr %5, align 8
  %115 = getelementptr inbounds %struct.H5D_chunk_ud_t, ptr %114, i32 0, i32 2
  %116 = getelementptr inbounds %struct.H5F_block_t, ptr %115, i32 0, i32 1
  %117 = load i64, ptr %116, align 8
  %118 = trunc i64 %117 to i32
  %119 = getelementptr inbounds %struct.H5D_farray_filt_elmt_t, ptr %10, i32 0, i32 1
  store i32 %118, ptr %119, align 8
  br label %120

120:                                              ; preds = %113
  %121 = load ptr, ptr %5, align 8
  %122 = getelementptr inbounds %struct.H5D_chunk_ud_t, ptr %121, i32 0, i32 3
  %123 = load i32, ptr %122, align 8
  %124 = getelementptr inbounds %struct.H5D_farray_filt_elmt_t, ptr %10, i32 0, i32 2
  store i32 %123, ptr %124, align 4
  %125 = load ptr, ptr %7, align 8
  %126 = load ptr, ptr %5, align 8
  %127 = getelementptr inbounds %struct.H5D_chunk_ud_t, ptr %126, i32 0, i32 5
  %128 = load i64, ptr %127, align 8
  %129 = call i32 @H5FA_set(ptr noundef %125, i64 noundef %128, ptr noundef %10)
  %130 = icmp slt i32 %129, 0
  br i1 %130, label %131, label %146

131:                                              ; preds = %120
  br label %132

132:                                              ; preds = %131
  br label %133

133:                                              ; preds = %132
  br label %134

134:                                              ; preds = %133
  %135 = load i64, ptr @H5E_DATASET_g, align 8
  %136 = load i64, ptr @H5E_CANTSET_g, align 8
  %137 = call i32 (ptr, ptr, i32, i64, i64, ptr, ...) @H5E_printf_stack(ptr noundef @.str.2, ptr noundef @__func__.H5D__farray_idx_insert, i32 noundef 993, i64 noundef %135, i64 noundef %136, ptr noundef @.str.24)
  br label %138

138:                                              ; preds = %134
  store i8 1, ptr %9, align 1
  %139 = load i8, ptr %9, align 1
  %140 = trunc i8 %139 to i1
  %141 = zext i1 %140 to i8
  store i8 %141, ptr %9, align 1
  br label %142

142:                                              ; preds = %138
  br label %143

143:                                              ; preds = %142
  store i32 -1, ptr %8, align 4
  br label %174

144:                                              ; No predecessors!
  br label %145

145:                                              ; preds = %144
  br label %146

146:                                              ; preds = %145, %120
  br label %173

147:                                              ; preds = %100
  %148 = load ptr, ptr %7, align 8
  %149 = load ptr, ptr %5, align 8
  %150 = getelementptr inbounds %struct.H5D_chunk_ud_t, ptr %149, i32 0, i32 5
  %151 = load i64, ptr %150, align 8
  %152 = load ptr, ptr %5, align 8
  %153 = getelementptr inbounds %struct.H5D_chunk_ud_t, ptr %152, i32 0, i32 2
  %154 = getelementptr inbounds %struct.H5F_block_t, ptr %153, i32 0, i32 0
  %155 = call i32 @H5FA_set(ptr noundef %148, i64 noundef %151, ptr noundef %154)
  %156 = icmp slt i32 %155, 0
  br i1 %156, label %157, label %172

157:                                              ; preds = %147
  br label %158

158:                                              ; preds = %157
  br label %159

159:                                              ; preds = %158
  br label %160

160:                                              ; preds = %159
  %161 = load i64, ptr @H5E_DATASET_g, align 8
  %162 = load i64, ptr @H5E_CANTSET_g, align 8
  %163 = call i32 (ptr, ptr, i32, i64, i64, ptr, ...) @H5E_printf_stack(ptr noundef @.str.2, ptr noundef @__func__.H5D__farray_idx_insert, i32 noundef 998, i64 noundef %161, i64 noundef %162, ptr noundef @.str.25)
  br label %164

164:                                              ; preds = %160
  store i8 1, ptr %9, align 1
  %165 = load i8, ptr %9, align 1
  %166 = trunc i8 %165 to i1
  %167 = zext i1 %166 to i8
  store i8 %167, ptr %9, align 1
  br label %168

168:                                              ; preds = %164
  br label %169

169:                                              ; preds = %168
  store i32 -1, ptr %8, align 4
  br label %174

170:                                              ; No predecessors!
  br label %171

171:                                              ; preds = %170
  br label %172

172:                                              ; preds = %171, %147
  br label %173

173:                                              ; preds = %172, %146
  br label %174

174:                                              ; preds = %173, %169, %143, %97, %73, %34
  %175 = load i32, ptr %8, align 4
  ret i32 %175
}