; Function Attrs: nounwind uwtable
define internal range(i32 -1, 1) i32 @H5D__farray_idx_insert(ptr nocapture noundef readonly %0, ptr noundef %1, ptr nocapture readnone %2) #1 {
  %4 = alloca %struct.H5D_farray_filt_elmt_t, align 8
  %5 = getelementptr inbounds i8, ptr %0, i64 24
  %6 = load ptr, ptr %5, align 8
  %7 = getelementptr inbounds i8, ptr %6, i64 32
  %8 = load ptr, ptr %7, align 8
  %.not = icmp eq ptr %8, null
  br i1 %.not, label %9, label %16

9:                                                ; preds = %3
  %10 = tail call i32 @H5D__farray_idx_open(ptr noundef nonnull %0)
  %11 = icmp slt i32 %10, 0
  br i1 %11, label %12, label %19

12:                                               ; preds = %9
  %13 = load i64, ptr @H5E_DATASET_g, align 8
  %14 = load i64, ptr @H5E_CANTOPENOBJ_g, align 8
  %15 = tail call i32 (ptr, ptr, i32, i64, i64, ptr, ...) @H5E_printf_stack(ptr noundef nonnull @.str.2, ptr noundef nonnull @__func__.H5D__farray_idx_insert, i32 noundef 970, i64 noundef %13, i64 noundef %14, ptr noundef nonnull @.str.20) #11
  br label %62

16:                                               ; preds = %3
  %17 = load ptr, ptr %0, align 8
  %18 = tail call i32 @H5FA_patch_file(ptr noundef nonnull %8, ptr noundef %17) #11
  br label %19

19:                                               ; preds = %9, %16
  %20 = load ptr, ptr %5, align 8
  %21 = getelementptr inbounds i8, ptr %20, i64 32
  %22 = load ptr, ptr %21, align 8
  %23 = getelementptr inbounds i8, ptr %1, i64 32
  %24 = load i64, ptr %23, align 8
  %.not25 = icmp eq i64 %24, -1
  br i1 %.not25, label %25, label %29

25:                                               ; preds = %19
  %26 = load i64, ptr @H5E_DATASET_g, align 8
  %27 = load i64, ptr @H5E_CANTALLOC_g, align 8
  %28 = tail call i32 (ptr, ptr, i32, i64, i64, ptr, ...) @H5E_printf_stack(ptr noundef nonnull @.str.2, ptr noundef nonnull @__func__.H5D__farray_idx_insert, i32 noundef 979, i64 noundef %26, i64 noundef %27, ptr noundef nonnull @.str.22) #11
  br label %62

29:                                               ; preds = %19
  %30 = getelementptr inbounds i8, ptr %1, i64 56
  %31 = load i64, ptr %30, align 8
  %.not26 = icmp ult i64 %31, 4294967296
  br i1 %.not26, label %36, label %32

32:                                               ; preds = %29
  %33 = load i64, ptr @H5E_ARGS_g, align 8
  %34 = load i64, ptr @H5E_BADRANGE_g, align 8
  %35 = tail call i32 (ptr, ptr, i32, i64, i64, ptr, ...) @H5E_printf_stack(ptr noundef nonnull @.str.2, ptr noundef nonnull @__func__.H5D__farray_idx_insert, i32 noundef 981, i64 noundef %33, i64 noundef %34, ptr noundef nonnull @.str.23) #11
  br label %62

36:                                               ; preds = %29
  %37 = getelementptr inbounds i8, ptr %0, i64 8
  %38 = load ptr, ptr %37, align 8
  %39 = getelementptr inbounds i8, ptr %38, i64 56
  %40 = load i64, ptr %39, align 8
  %.not27 = icmp eq i64 %40, 0
  br i1 %.not27, label %55, label %41

41:                                               ; preds = %36
  store i64 %24, ptr %4, align 8
  %42 = getelementptr inbounds i8, ptr %1, i64 40
  %43 = load i64, ptr %42, align 8
  %44 = trunc i64 %43 to i32
  %45 = getelementptr inbounds i8, ptr %4, i64 8
  store i32 %44, ptr %45, align 8
  %46 = getelementptr inbounds i8, ptr %1, i64 48
  %47 = load i32, ptr %46, align 8
  %48 = getelementptr inbounds i8, ptr %4, i64 12
  store i32 %47, ptr %48, align 4
  %49 = call i32 @H5FA_set(ptr noundef %22, i64 noundef %31, ptr noundef nonnull %4) #11
  %50 = icmp slt i32 %49, 0
  br i1 %50, label %51, label %62

51:                                               ; preds = %41
  %52 = load i64, ptr @H5E_DATASET_g, align 8
  %53 = load i64, ptr @H5E_CANTSET_g, align 8
  %54 = call i32 (ptr, ptr, i32, i64, i64, ptr, ...) @H5E_printf_stack(ptr noundef nonnull @.str.2, ptr noundef nonnull @__func__.H5D__farray_idx_insert, i32 noundef 993, i64 noundef %52, i64 noundef %53, ptr noundef nonnull @.str.24) #11
  br label %62

55:                                               ; preds = %36
  %56 = tail call i32 @H5FA_set(ptr noundef %22, i64 noundef %31, ptr noundef nonnull %23) #11
  %57 = icmp slt i32 %56, 0
  br i1 %57, label %58, label %62

58:                                               ; preds = %55
  %59 = load i64, ptr @H5E_DATASET_g, align 8
  %60 = load i64, ptr @H5E_CANTSET_g, align 8
  %61 = tail call i32 (ptr, ptr, i32, i64, i64, ptr, ...) @H5E_printf_stack(ptr noundef nonnull @.str.2, ptr noundef nonnull @__func__.H5D__farray_idx_insert, i32 noundef 998, i64 noundef %59, i64 noundef %60, ptr noundef nonnull @.str.25) #11
  br label %62

62:                                               ; preds = %41, %55, %58, %51, %32, %25, %12
  %.0 = phi i32 [ -1, %32 ], [ -1, %51 ], [ 0, %41 ], [ -1, %58 ], [ 0, %55 ], [ -1, %25 ], [ -1, %12 ]
  ret i32 %.0
}